target datalayout = "e-m:e-p270:32:32-p271:32:32-p272:64:64-i64:64-i128:128-f80:128-n8:16:32:64-S128"
target triple = "x86_64-pc-linux-gnu"

%struct.Bdc_Isf_t_ = type { i32, i32, ptr, ptr }
%struct.Bdc_Man_t_ = type { ptr, i32, i32, i32, i32, ptr, i32, i32, i32, ptr, ptr, i32, ptr, ptr, ptr, ptr, ptr, ptr, ptr, %struct.Bdc_Isf_t_, ptr, %struct.Bdc_Isf_t_, ptr, %struct.Bdc_Isf_t_, ptr, %struct.Bdc_Isf_t_, ptr, i32, i32, i32, i32, i32, i32, i32, i64, i64, i64, i64, i64 }
%struct.Vec_Int_t_ = type { i32, i32, ptr }

; Function Attrs: inlinehint nounwind uwtable
define internal void @Vec_IntClear(ptr noundef %0) #1 {
  %2 = alloca ptr, align 8
  store ptr %0, ptr %2, align 8, !tbaa !40
  %3 = load ptr, ptr %2, align 8, !tbaa !40
  %4 = getelementptr inbounds nuw %struct.Vec_Int_t_, ptr %3, i32 0, i32 1
  store i32 0, ptr %4, align 4, !tbaa !41
  ret void
}

; Function Attrs: inlinehint nounwind uwtable
define internal i32 @Vec_IntEntry(ptr noundef %0, i32 noundef %1) #1 {
  %3 = alloca ptr, align 8
  %4 = alloca i32, align 4
  store ptr %0, ptr %3, align 8, !tbaa !40
  store i32 %1, ptr %4, align 4, !tbaa !24
  %5 = load ptr, ptr %3, align 8, !tbaa !40
  %6 = getelementptr inbounds nuw %struct.Vec_Int_t_, ptr %5, i32 0, i32 2
  %7 = load ptr, ptr %6, align 8, !tbaa !44
  %8 = load i32, ptr %4, align 4, !tbaa !24
  %9 = sext i32 %8 to i64
  %10 = getelementptr inbounds i32, ptr %7, i64 %9
  %11 = load i32, ptr %10, align 4, !tbaa !24
  ret i32 %11
}

; Function Attrs: inlinehint nounwind uwtable
define internal i32 @Vec_IntSize(ptr noundef %0) #1 {
  %2 = alloca ptr, align 8
  store ptr %0, ptr %2, align 8, !tbaa !40
  %3 = load ptr, ptr %2, align 8, !tbaa !40
  %4 = getelementptr inbounds nuw %struct.Vec_Int_t_, ptr %3, i32 0, i32 1
  %5 = load i32, ptr %4, align 4, !tbaa !41
  ret i32 %5
}

; Function Attrs: nounwind uwtable
define void @Bdc_TableClear(ptr noundef %0) #0 {
  %2 = alloca ptr, align 8
  %3 = alloca i32, align 4
  %4 = alloca i32, align 4
  store ptr %0, ptr %2, align 8, !tbaa !3
  call void @llvm.lifetime.start.p0(i64 4, ptr %3) #5
  call void @llvm.lifetime.start.p0(i64 4, ptr %4) #5
  store i32 0, ptr %4, align 4, !tbaa !24
  br label %5

5:                                                ; preds = %27, %1
  %6 = load i32, ptr %4, align 4, !tbaa !24
  %7 = load ptr, ptr %2, align 8, !tbaa !3
  %8 = getelementptr inbounds nuw %struct.Bdc_Man_t_, ptr %7, i32 0, i32 12
  %9 = load ptr, ptr %8, align 8, !tbaa !39
  %10 = call i32 @Vec_IntSize(ptr noundef %9)
  %11 = icmp slt i32 %6, %10
  br i1 %11, label %12, label %18

12:                                               ; preds = %5
  %13 = load ptr, ptr %2, align 8, !tbaa !3
  %14 = getelementptr inbounds nuw %struct.Bdc_Man_t_, ptr %13, i32 0, i32 12
  %15 = load ptr, ptr %14, align 8, !tbaa !39
  %16 = load i32, ptr %4, align 4, !tbaa !24
  %17 = call i32 @Vec_IntEntry(ptr noundef %15, i32 noundef %16)
  store i32 %17, ptr %3, align 4, !tbaa !24
  br label %18

18:                                               ; preds = %12, %5
  %19 = phi i1 [ false, %5 ], [ true, %12 ]
  br i1 %19, label %20, label %30

20:                                               ; preds = %18
  %21 = load ptr, ptr %2, align 8, !tbaa !3
  %22 = getelementptr inbounds nuw %struct.Bdc_Man_t_, ptr %21, i32 0, i32 10
  %23 = load ptr, ptr %22, align 8, !tbaa !30
  %24 = load i32, ptr %3, align 4, !tbaa !24
  %25 = sext i32 %24 to i64
  %26 = getelementptr inbounds ptr, ptr %23, i64 %25
  store ptr null, ptr %26, align 8, !tbaa !31
  br label %27

27:                                               ; preds = %20
  %28 = load i32, ptr %4, align 4, !tbaa !24
  %29 = add nsw i32 %28, 1
  store i32 %29, ptr %4, align 4, !tbaa !24
  br label %5, !llvm.loop !45

30:                                               ; preds = %18
  %31 = load ptr, ptr %2, align 8, !tbaa !3
  %32 = getelementptr inbounds nuw %struct.Bdc_Man_t_, ptr %31, i32 0, i32 12
  %33 = load ptr, ptr %32, align 8, !tbaa !39
  call void @Vec_IntClear(ptr noundef %33)
  call void @llvm.lifetime.end.p0(i64 4, ptr %4) #5
  call void @llvm.lifetime.end.p0(i64 4, ptr %3) #5
  ret void
}