; Function Attrs: nofree norecurse nosync nounwind memory(readwrite, inaccessiblemem: none) uwtable
define void @Bdc_TableClear(ptr noundef readonly captures(none) %0) local_unnamed_addr #1 {
  %2 = getelementptr inbounds nuw i8, ptr %0, i64 72
  %3 = load ptr, ptr %2, align 8, !tbaa !34
  %4 = getelementptr i8, ptr %3, i64 4
  %.val = load i32, ptr %4, align 4, !tbaa !35
  %5 = icmp sgt i32 %.val, 0
  br i1 %5, label %.lr.ph, label %.critedge

.lr.ph:                                           ; preds = %1
  %6 = getelementptr i8, ptr %3, i64 8
  %.val7 = load ptr, ptr %6, align 8, !tbaa !38
  %7 = getelementptr inbounds nuw i8, ptr %0, i64 56
  %8 = load ptr, ptr %7, align 8, !tbaa !27
  %wide.trip.count = zext nneg i32 %.val to i64
  br label %9

9:                                                ; preds = %.lr.ph, %9
  %indvars.iv = phi i64 [ 0, %.lr.ph ], [ %indvars.iv.next, %9 ]
  %10 = getelementptr inbounds nuw i32, ptr %.val7, i64 %indvars.iv
  %11 = load i32, ptr %10, align 4, !tbaa !19
  %12 = sext i32 %11 to i64
  %13 = getelementptr inbounds ptr, ptr %8, i64 %12
  store ptr null, ptr %13, align 8, !tbaa !28
  %indvars.iv.next = add nuw nsw i64 %indvars.iv, 1
  %exitcond.not = icmp eq i64 %indvars.iv.next, %wide.trip.count
  br i1 %exitcond.not, label %.critedge, label %9, !llvm.loop !40

.critedge:                                        ; preds = %9, %1
  store i32 0, ptr %4, align 4, !tbaa !35
  ret void
}